target datalayout = "e-m:e-p270:32:32-p271:32:32-p272:64:64-i64:64-i128:128-f80:128-n8:16:32:64-S128"
target triple = "x86_64-pc-linux-gnu"

%struct.st_str_end_key = type { ptr, ptr }
%struct.re_pattern_buffer = type { ptr, ptr, ptr, i32, i32, ptr, ptr, i32, i32, i32, i32, i32, i32, i32, i32, i32, ptr, ptr, i32, ptr, i32, ptr, i32, i32, i32, i32, i32, i32, ptr, ptr, [256 x i8], i32, i32, i32, ptr }
%struct.NameEntry = type { ptr, i32, i32, i32, i32, ptr }
%struct.re_registers = type { i32, i32, ptr, ptr, ptr }

; Function Attrs: nounwind uwtable
define dso_local i32 @onig_st_lookup_strend(ptr noundef %0, ptr noundef %1, ptr noundef %2, ptr noundef %3) #0 {
  %5 = alloca ptr, align 8
  %6 = alloca ptr, align 8
  %7 = alloca ptr, align 8
  %8 = alloca ptr, align 8
  %9 = alloca %struct.st_str_end_key, align 8
  store ptr %0, ptr %5, align 8, !tbaa !9
  store ptr %1, ptr %6, align 8, !tbaa !4
  store ptr %2, ptr %7, align 8, !tbaa !4
  store ptr %3, ptr %8, align 8, !tbaa !20
  call void @llvm.lifetime.start.p0(i64 16, ptr %9) #8
  %10 = load ptr, ptr %6, align 8, !tbaa !4
  %11 = getelementptr inbounds nuw %struct.st_str_end_key, ptr %9, i32 0, i32 0
  store ptr %10, ptr %11, align 8, !tbaa !17
  %12 = load ptr, ptr %7, align 8, !tbaa !4
  %13 = getelementptr inbounds nuw %struct.st_str_end_key, ptr %9, i32 0, i32 1
  store ptr %12, ptr %13, align 8, !tbaa !15
  %14 = load ptr, ptr %5, align 8, !tbaa !9
  %15 = ptrtoint ptr %9 to i64
  %16 = load ptr, ptr %8, align 8, !tbaa !20
  %17 = call i32 @onig_st_lookup(ptr noundef %14, i64 noundef %15, ptr noundef %16)
  call void @llvm.lifetime.end.p0(i64 16, ptr %9) #8
  ret i32 %17
}

; Function Attrs: nounwind uwtable
define internal ptr @name_find(ptr noundef %0, ptr noundef %1, ptr noundef %2) #0 {
  %4 = alloca ptr, align 8
  %5 = alloca ptr, align 8
  %6 = alloca ptr, align 8
  %7 = alloca ptr, align 8
  %8 = alloca ptr, align 8
  store ptr %0, ptr %4, align 8, !tbaa !33
  store ptr %1, ptr %5, align 8, !tbaa !4
  store ptr %2, ptr %6, align 8, !tbaa !4
  call void @llvm.lifetime.start.p0(i64 8, ptr %7) #8
  call void @llvm.lifetime.start.p0(i64 8, ptr %8) #8
  %9 = load ptr, ptr %4, align 8, !tbaa !33
  %10 = getelementptr inbounds nuw %struct.re_pattern_buffer, ptr %9, i32 0, i32 21
  %11 = load ptr, ptr %10, align 8, !tbaa !35
  store ptr %11, ptr %8, align 8, !tbaa !37
  store ptr null, ptr %7, align 8, !tbaa !9
  %12 = load ptr, ptr %8, align 8, !tbaa !37
  %13 = icmp ne ptr %12, null
  br i1 %13, label %14, label %19

14:                                               ; preds = %3
  %15 = load ptr, ptr %8, align 8, !tbaa !37
  %16 = load ptr, ptr %5, align 8, !tbaa !4
  %17 = load ptr, ptr %6, align 8, !tbaa !4
  %18 = call i32 @onig_st_lookup_strend(ptr noundef %15, ptr noundef %16, ptr noundef %17, ptr noundef %7)
  br label %19

19:                                               ; preds = %14, %3
  %20 = load ptr, ptr %7, align 8, !tbaa !9
  call void @llvm.lifetime.end.p0(i64 8, ptr %8) #8
  call void @llvm.lifetime.end.p0(i64 8, ptr %7) #8
  ret ptr %20
}

; Function Attrs: nounwind uwtable
define dso_local i32 @onig_name_to_group_numbers(ptr noundef %0, ptr noundef %1, ptr noundef %2, ptr noundef %3) #0 {
  %5 = alloca i32, align 4
  %6 = alloca ptr, align 8
  %7 = alloca ptr, align 8
  %8 = alloca ptr, align 8
  %9 = alloca ptr, align 8
  %10 = alloca ptr, align 8
  %11 = alloca i32, align 4
  store ptr %0, ptr %6, align 8, !tbaa !33
  store ptr %1, ptr %7, align 8, !tbaa !4
  store ptr %2, ptr %8, align 8, !tbaa !4
  store ptr %3, ptr %9, align 8, !tbaa !60
  call void @llvm.lifetime.start.p0(i64 8, ptr %10) #8
  %12 = load ptr, ptr %6, align 8, !tbaa !33
  %13 = load ptr, ptr %7, align 8, !tbaa !4
  %14 = load ptr, ptr %8, align 8, !tbaa !4
  %15 = call ptr @name_find(ptr noundef %12, ptr noundef %13, ptr noundef %14)
  store ptr %15, ptr %10, align 8, !tbaa !9
  %16 = load ptr, ptr %10, align 8, !tbaa !9
  %17 = icmp eq ptr %16, null
  br i1 %17, label %18, label %19

18:                                               ; preds = %4
  store i32 -217, ptr %5, align 4
  store i32 1, ptr %11, align 4
  br label %36

19:                                               ; preds = %4
  %20 = load ptr, ptr %10, align 8, !tbaa !9
  %21 = getelementptr inbounds nuw %struct.NameEntry, ptr %20, i32 0, i32 2
  %22 = load i32, ptr %21, align 4, !tbaa !50
  switch i32 %22, label %27 [
    i32 0, label %32
    i32 1, label %23
  ]

23:                                               ; preds = %19
  %24 = load ptr, ptr %10, align 8, !tbaa !9
  %25 = getelementptr inbounds nuw %struct.NameEntry, ptr %24, i32 0, i32 4
  %26 = load ptr, ptr %9, align 8, !tbaa !60
  store ptr %25, ptr %26, align 8, !tbaa !62
  br label %32

27:                                               ; preds = %19
  %28 = load ptr, ptr %10, align 8, !tbaa !9
  %29 = getelementptr inbounds nuw %struct.NameEntry, ptr %28, i32 0, i32 5
  %30 = load ptr, ptr %29, align 8, !tbaa !51
  %31 = load ptr, ptr %9, align 8, !tbaa !60
  store ptr %30, ptr %31, align 8, !tbaa !62
  br label %32

32:                                               ; preds = %27, %23, %19
  %33 = load ptr, ptr %10, align 8, !tbaa !9
  %34 = getelementptr inbounds nuw %struct.NameEntry, ptr %33, i32 0, i32 2
  %35 = load i32, ptr %34, align 4, !tbaa !50
  store i32 %35, ptr %5, align 4
  store i32 1, ptr %11, align 4
  br label %36

36:                                               ; preds = %32, %18
  call void @llvm.lifetime.end.p0(i64 8, ptr %10) #8
  %37 = load i32, ptr %5, align 4
  ret i32 %37
}

; Function Attrs: nounwind uwtable
define dso_local i32 @onig_name_to_backref_number(ptr noundef %0, ptr noundef %1, ptr noundef %2, ptr noundef %3) #0 {
  %5 = alloca i32, align 4
  %6 = alloca ptr, align 8
  %7 = alloca ptr, align 8
  %8 = alloca ptr, align 8
  %9 = alloca ptr, align 8
  %10 = alloca i32, align 4
  %11 = alloca i32, align 4
  %12 = alloca ptr, align 8
  %13 = alloca i32, align 4
  store ptr %0, ptr %6, align 8, !tbaa !33
  store ptr %1, ptr %7, align 8, !tbaa !4
  store ptr %2, ptr %8, align 8, !tbaa !4
  store ptr %3, ptr %9, align 8, !tbaa !63
  call void @llvm.lifetime.start.p0(i64 4, ptr %10) #8
  call void @llvm.lifetime.start.p0(i64 4, ptr %11) #8
  call void @llvm.lifetime.start.p0(i64 8, ptr %12) #8
  %14 = load ptr, ptr %6, align 8, !tbaa !33
  %15 = load ptr, ptr %7, align 8, !tbaa !4
  %16 = load ptr, ptr %8, align 8, !tbaa !4
  %17 = call i32 @onig_name_to_group_numbers(ptr noundef %14, ptr noundef %15, ptr noundef %16, ptr noundef %12)
  store i32 %17, ptr %11, align 4, !tbaa !10
  %18 = load i32, ptr %11, align 4, !tbaa !10
  %19 = icmp slt i32 %18, 0
  br i1 %19, label %20, label %22

20:                                               ; preds = %4
  %21 = load i32, ptr %11, align 4, !tbaa !10
  store i32 %21, ptr %5, align 4
  store i32 1, ptr %13, align 4
  br label %73

22:                                               ; preds = %4
  %23 = load i32, ptr %11, align 4, !tbaa !10
  %24 = icmp eq i32 %23, 0
  br i1 %24, label %25, label %26

25:                                               ; preds = %22
  store i32 -11, ptr %5, align 4
  store i32 1, ptr %13, align 4
  br label %73

26:                                               ; preds = %22
  %27 = load i32, ptr %11, align 4, !tbaa !10
  %28 = icmp eq i32 %27, 1
  br i1 %28, label %29, label %33

29:                                               ; preds = %26
  %30 = load ptr, ptr %12, align 8, !tbaa !62
  %31 = getelementptr inbounds i32, ptr %30, i64 0
  %32 = load i32, ptr %31, align 4, !tbaa !10
  store i32 %32, ptr %5, align 4
  store i32 1, ptr %13, align 4
  br label %73

33:                                               ; preds = %26
  %34 = load ptr, ptr %9, align 8, !tbaa !63
  %35 = icmp ne ptr %34, null
  br i1 %35, label %36, label %66

36:                                               ; preds = %33
  %37 = load i32, ptr %11, align 4, !tbaa !10
  %38 = sub nsw i32 %37, 1
  store i32 %38, ptr %10, align 4, !tbaa !10
  br label %39

39:                                               ; preds = %62, %36
  %40 = load i32, ptr %10, align 4, !tbaa !10
  %41 = icmp sge i32 %40, 0
  br i1 %41, label %42, label %65

42:                                               ; preds = %39
  %43 = load ptr, ptr %9, align 8, !tbaa !63
  %44 = getelementptr inbounds nuw %struct.re_registers, ptr %43, i32 0, i32 2
  %45 = load ptr, ptr %44, align 8, !tbaa !65
  %46 = load ptr, ptr %12, align 8, !tbaa !62
  %47 = load i32, ptr %10, align 4, !tbaa !10
  %48 = sext i32 %47 to i64
  %49 = getelementptr inbounds i32, ptr %46, i64 %48
  %50 = load i32, ptr %49, align 4, !tbaa !10
  %51 = sext i32 %50 to i64
  %52 = getelementptr inbounds i32, ptr %45, i64 %51
  %53 = load i32, ptr %52, align 4, !tbaa !10
  %54 = icmp ne i32 %53, -1
  br i1 %54, label %55, label %61

55:                                               ; preds = %42
  %56 = load ptr, ptr %12, align 8, !tbaa !62
  %57 = load i32, ptr %10, align 4, !tbaa !10
  %58 = sext i32 %57 to i64
  %59 = getelementptr inbounds i32, ptr %56, i64 %58
  %60 = load i32, ptr %59, align 4, !tbaa !10
  store i32 %60, ptr %5, align 4
  store i32 1, ptr %13, align 4
  br label %73

61:                                               ; preds = %42
  br label %62

62:                                               ; preds = %61
  %63 = load i32, ptr %10, align 4, !tbaa !10
  %64 = add nsw i32 %63, -1
  store i32 %64, ptr %10, align 4, !tbaa !10
  br label %39, !llvm.loop !68

65:                                               ; preds = %39
  br label %66

66:                                               ; preds = %65, %33
  %67 = load ptr, ptr %12, align 8, !tbaa !62
  %68 = load i32, ptr %11, align 4, !tbaa !10
  %69 = sub nsw i32 %68, 1
  %70 = sext i32 %69 to i64
  %71 = getelementptr inbounds i32, ptr %67, i64 %70
  %72 = load i32, ptr %71, align 4, !tbaa !10
  store i32 %72, ptr %5, align 4
  store i32 1, ptr %13, align 4
  br label %73

73:                                               ; preds = %66, %55, %29, %25, %20
  call void @llvm.lifetime.end.p0(i64 8, ptr %12) #8
  call void @llvm.lifetime.end.p0(i64 4, ptr %11) #8
  call void @llvm.lifetime.end.p0(i64 4, ptr %10) #8
  %74 = load i32, ptr %5, align 4
  ret i32 %74
}