; Function Attrs: nounwind uwtable
define dso_local i32 @onig_name_to_backref_number(ptr noundef readonly captures(none) %0, ptr noundef %1, ptr noundef %2, ptr noundef readonly captures(address_is_null) %3) local_unnamed_addr #2 {
  %5 = alloca %struct.st_str_end_key, align 8
  %6 = alloca ptr, align 8
  %7 = getelementptr i8, ptr %0, i64 128
  %.val.i = load ptr, ptr %7, align 8, !tbaa !27
  call void @llvm.lifetime.start.p0(i64 8, ptr nonnull %6) #25
  store ptr null, ptr %6, align 8, !tbaa !4
  %.not.i.i = icmp eq ptr %.val.i, null
  br i1 %.not.i.i, label %name_find.exit.thread.i, label %name_find.exit.i

name_find.exit.thread.i:                          ; preds = %4
  call void @llvm.lifetime.end.p0(i64 8, ptr nonnull %6) #25
  br label %onig_name_to_group_numbers.exit.thread

name_find.exit.i:                                 ; preds = %4
  call void @llvm.lifetime.start.p0(i64 16, ptr nonnull %5) #25
  store ptr %1, ptr %5, align 8, !tbaa !16
  %8 = getelementptr inbounds nuw i8, ptr %5, i64 8
  store ptr %2, ptr %8, align 8, !tbaa !13
  %9 = ptrtoint ptr %5 to i64
  %10 = call i32 @onig_st_lookup(ptr noundef nonnull %.val.i, i64 noundef %9, ptr noundef nonnull %6) #25
  call void @llvm.lifetime.end.p0(i64 16, ptr nonnull %5) #25
  %.pre.i.i = load ptr, ptr %6, align 8, !tbaa !4
  call void @llvm.lifetime.end.p0(i64 8, ptr nonnull %6) #25
  %11 = icmp eq ptr %.pre.i.i, null
  br i1 %11, label %onig_name_to_group_numbers.exit.thread, label %12

12:                                               ; preds = %name_find.exit.i
  %13 = getelementptr inbounds nuw i8, ptr %.pre.i.i, i64 12
  %14 = load i32, ptr %13, align 4, !tbaa !41
  switch i32 %14, label %onig_name_to_group_numbers.exit [
    i32 0, label %onig_name_to_group_numbers.exit.thread
    i32 1, label %onig_name_to_group_numbers.exit.thread25.thread32
  ]

onig_name_to_group_numbers.exit.thread25.thread32: ; preds = %12
  %15 = getelementptr inbounds nuw i8, ptr %.pre.i.i, i64 20
  %16 = load i32, ptr %15, align 4, !tbaa !8
  br label %onig_name_to_group_numbers.exit.thread

onig_name_to_group_numbers.exit:                  ; preds = %12
  %17 = getelementptr inbounds nuw i8, ptr %.pre.i.i, i64 24
  %18 = load ptr, ptr %17, align 8, !tbaa !42
  %19 = icmp slt i32 %14, 0
  br i1 %19, label %onig_name_to_group_numbers.exit.thread, label %onig_name_to_group_numbers.exit.thread25

onig_name_to_group_numbers.exit.thread25:         ; preds = %onig_name_to_group_numbers.exit
  %.not = icmp eq ptr %3, null
  br i1 %.not, label %onig_name_to_group_numbers.exit.thread25..loopexit_crit_edge, label %.preheader

onig_name_to_group_numbers.exit.thread25..loopexit_crit_edge: ; preds = %onig_name_to_group_numbers.exit.thread25
  %.pre = zext nneg i32 %14 to i64
  br label %.loopexit

.preheader:                                       ; preds = %onig_name_to_group_numbers.exit.thread25
  %20 = getelementptr inbounds nuw i8, ptr %3, i64 8
  %21 = zext nneg i32 %14 to i64
  br label %22

22:                                               ; preds = %.preheader, %24
  %indvars.iv = phi i64 [ %21, %.preheader ], [ %indvars.iv.next, %24 ]
  %23 = icmp sgt i64 %indvars.iv, 0
  br i1 %23, label %24, label %.loopexit

24:                                               ; preds = %22
  %indvars.iv.next = add nsw i64 %indvars.iv, -1
  %25 = load ptr, ptr %20, align 8, !tbaa !52
  %26 = getelementptr inbounds nuw i32, ptr %18, i64 %indvars.iv.next
  %27 = load i32, ptr %26, align 4, !tbaa !8
  %28 = sext i32 %27 to i64
  %29 = getelementptr inbounds i32, ptr %25, i64 %28
  %30 = load i32, ptr %29, align 4, !tbaa !8
  %.not18 = icmp eq i32 %30, -1
  br i1 %.not18, label %22, label %onig_name_to_group_numbers.exit.thread, !llvm.loop !55

.loopexit:                                        ; preds = %22, %onig_name_to_group_numbers.exit.thread25..loopexit_crit_edge
  %.pre-phi = phi i64 [ %.pre, %onig_name_to_group_numbers.exit.thread25..loopexit_crit_edge ], [ %21, %22 ]
  %31 = getelementptr i32, ptr %18, i64 %.pre-phi
  %32 = getelementptr i8, ptr %31, i64 -4
  %33 = load i32, ptr %32, align 4, !tbaa !8
  br label %onig_name_to_group_numbers.exit.thread

onig_name_to_group_numbers.exit.thread:           ; preds = %24, %12, %name_find.exit.thread.i, %name_find.exit.i, %onig_name_to_group_numbers.exit, %.loopexit, %onig_name_to_group_numbers.exit.thread25.thread32
  %.0 = phi i32 [ %16, %onig_name_to_group_numbers.exit.thread25.thread32 ], [ %33, %.loopexit ], [ %14, %onig_name_to_group_numbers.exit ], [ -217, %name_find.exit.i ], [ -217, %name_find.exit.thread.i ], [ -11, %12 ], [ %27, %24 ]
  ret i32 %.0
}